target datalayout = "e-m:e-p270:32:32-p271:32:32-p272:64:64-i64:64-i128:128-f80:128-n8:16:32:64-S128"
target triple = "x86_64-unknown-linux-gnu"

%"struct.spacer::iuc_solver::def_manager" = type { ptr, %class.ref_vector, %class.obj_map, %class.obj_map.6 }
%class.ref_vector = type { %class.ref_vector_core }
%class.ref_vector_core = type { %class.ref_manager_wrapper, %class.ptr_vector }
%class.ref_manager_wrapper = type { ptr }
%class.ptr_vector = type { %class.vector }
%class.vector = type { ptr }
%class.obj_map = type { %class.core_hashtable }
%class.core_hashtable = type <{ ptr, i32, i32, i32, [4 x i8] }>
%class.obj_map.6 = type { %class.core_hashtable.7 }
%class.core_hashtable.7 = type <{ ptr, i32, i32, i32, [4 x i8] }>
%"class.spacer::iuc_solver" = type <{ %class.solver, ptr, %class.ref_vector.0, i32, [4 x i8], %class.vector.5, %"struct.spacer::iuc_solver::def_manager", %class.ref_vector, i32, i8, [3 x i8], %class.stopwatch, %class.stopwatch, %class.stopwatch, %class.stopwatch, %class.expr_substitution, i8, [3 x i8], i32, i32, i8, i8, [2 x i8] }>
%class.solver = type { %class.check_sat_result, %"class.user_propagator::core", %class.params_ref, %class.symbol }
%class.check_sat_result = type { ptr, ptr, %class.ref_vector, %class.obj_ref, i32, i32, %class.ref, double }
%class.obj_ref = type { ptr, ptr }
%class.ref = type { ptr }
%"class.user_propagator::core" = type { ptr }
%class.params_ref = type { ptr }
%class.symbol = type { ptr }
%class.ref_vector.0 = type { %class.ref_vector_core.1 }
%class.ref_vector_core.1 = type { %class.ref_manager_wrapper.2, %class.ptr_vector.3 }
%class.ref_manager_wrapper.2 = type { ptr }
%class.ptr_vector.3 = type { %class.vector.4 }
%class.vector.4 = type { ptr }
%class.vector.5 = type { ptr }
%class.stopwatch = type <{ %"class.std::chrono::time_point", %"class.std::chrono::duration", i8, [7 x i8] }>
%"class.std::chrono::time_point" = type { %"class.std::chrono::duration" }
%"class.std::chrono::duration" = type { i64 }
%class.expr_substitution = type <{ ptr, %class.obj_map.11, %class.scoped_ptr, %class.scoped_ptr.16, i8, [7 x i8] }>
%class.obj_map.11 = type { %class.core_hashtable.12 }
%class.core_hashtable.12 = type <{ ptr, i32, i32, i32, [4 x i8] }>
%class.scoped_ptr = type { ptr }
%class.scoped_ptr.16 = type { ptr }

; Function Attrs: mustprogress uwtable
define hidden void @_ZN6spacer10iuc_solver14get_unsat_coreER10ref_vectorI4expr11ast_managerE(ptr noundef nonnull align 8 dereferenceable(398) %this, ptr noundef nonnull align 8 dereferenceable(16) %core) unnamed_addr #4 align 2 {
entry:
  %this.addr = alloca ptr, align 8
  %core.addr = alloca ptr, align 8
  store ptr %this, ptr %this.addr, align 8
  store ptr %core, ptr %core.addr, align 8
  %this1 = load ptr, ptr %this.addr, align 8
  %m_solver = getelementptr inbounds %"class.spacer::iuc_solver", ptr %this1, i32 0, i32 1
  %0 = load ptr, ptr %m_solver, align 8
  %1 = load ptr, ptr %core.addr, align 8
  %vtable = load ptr, ptr %0, align 8
  %vfn = getelementptr inbounds ptr, ptr %vtable, i64 3
  %2 = load ptr, ptr %vfn, align 8
  call void %2(ptr noundef nonnull align 8 dereferenceable(72) %0, ptr noundef nonnull align 8 dereferenceable(16) %1)
  %3 = load ptr, ptr %core.addr, align 8
  call void @_ZN6spacer10iuc_solver20undo_proxies_in_coreER10ref_vectorI4expr11ast_managerE(ptr noundef nonnull align 8 dereferenceable(398) %this1, ptr noundef nonnull align 8 dereferenceable(16) %3)
  ret void
}