; Function Attrs: mustprogress uwtable
define hidden void @_ZN6spacer10iuc_solver14get_unsat_coreER10ref_vectorI4expr11ast_managerE(ptr nocapture noundef nonnull readonly align 8 dereferenceable(398) %this, ptr noundef nonnull align 8 dereferenceable(16) %core) unnamed_addr #3 align 2 {
entry:
  %m_solver = getelementptr inbounds i8, ptr %this, i64 96
  %0 = load ptr, ptr %m_solver, align 8
  %vtable = load ptr, ptr %0, align 8
  %vfn = getelementptr inbounds i8, ptr %vtable, i64 24
  %1 = load ptr, ptr %vfn, align 8
  tail call void %1(ptr noundef nonnull align 8 dereferenceable(72) %0, ptr noundef nonnull align 8 dereferenceable(16) %core)
  tail call void @_ZN6spacer10iuc_solver20undo_proxies_in_coreER10ref_vectorI4expr11ast_managerE(ptr noundef nonnull align 8 dereferenceable(398) %this, ptr noundef nonnull align 8 dereferenceable(16) %core)
  ret void
}